target datalayout = "e-m:e-p270:32:32-p271:32:32-p272:64:64-i64:64-i128:128-f80:128-n8:16:32:64-S128"
target triple = "x86_64-pc-linux-gnu"

@.str = private unnamed_addr constant [17 x i8] c"Edge (%d,%d)/%d\0A\00", align 1

; Function Attrs: nounwind uwtable
define void @Rpo_PrintEdge(ptr noundef %0) #0 {
  %2 = alloca ptr, align 8
  store ptr %0, ptr %2, align 8, !tbaa !20
  %3 = load ptr, ptr %2, align 8, !tbaa !20
  %4 = load i64, ptr %3, align 8
  %5 = lshr i64 %4, 4
  %6 = and i64 %5, 1073741823
  %7 = trunc i64 %6 to i32
  %8 = load ptr, ptr %2, align 8, !tbaa !20
  %9 = load i64, ptr %8, align 8
  %10 = lshr i64 %9, 34
  %11 = trunc i64 %10 to i32
  %12 = load ptr, ptr %2, align 8, !tbaa !20
  %13 = load i64, ptr %12, align 8
  %14 = lshr i64 %13, 1
  %15 = and i64 %14, 3
  %16 = trunc i64 %15 to i32
  call void (i32, ptr, ...) @Abc_Print(i32 noundef -2, ptr noundef @.str, i32 noundef %7, i32 noundef %11, i32 noundef %16)
  ret void
}