; Function Attrs: nounwind uwtable
define void @Rpo_PrintEdge(ptr noundef readonly captures(none) %0) local_unnamed_addr #6 {
  %2 = load i64, ptr %0, align 8
  %3 = lshr i64 %2, 4
  %4 = trunc i64 %3 to i32
  %5 = and i32 %4, 1073741823
  %6 = lshr i64 %2, 34
  %7 = trunc nuw nsw i64 %6 to i32
  %8 = trunc i64 %2 to i32
  %9 = lshr i32 %8, 1
  %10 = and i32 %9, 3
  tail call void (i32, ptr, ...) @Abc_Print(i32 poison, ptr noundef nonnull @.str, i32 noundef %5, i32 noundef %7, i32 noundef %10)
  ret void
}